target datalayout = "e-m:e-p270:32:32-p271:32:32-p272:64:64-i64:64-i128:128-f80:128-n8:16:32:64-S128"
target triple = "x86_64-pc-linux-gnu"

%struct.CORD_ec_struct = type { ptr, ptr, [129 x i8] }

@stderr = external global ptr, align 8
@.str = private unnamed_addr constant [4 x i8] c"%s\0A\00", align 1
@.str.1 = private unnamed_addr constant [14 x i8] c"Out of memory\00", align 1

; Function Attrs: nounwind uwtable
define void @CORD_ec_flush_buf(ptr noundef %0) #0 {
  %2 = alloca ptr, align 8
  %3 = alloca i64, align 8
  %4 = alloca ptr, align 8
  %5 = alloca i32, align 4
  store ptr %0, ptr %2, align 8, !tbaa !33
  call void @llvm.lifetime.start.p0(i64 8, ptr %3) #9
  %6 = load ptr, ptr %2, align 8, !tbaa !33
  %7 = getelementptr inbounds %struct.CORD_ec_struct, ptr %6, i64 0
  %8 = getelementptr inbounds nuw %struct.CORD_ec_struct, ptr %7, i32 0, i32 1
  %9 = load ptr, ptr %8, align 8, !tbaa !35
  %10 = load ptr, ptr %2, align 8, !tbaa !33
  %11 = getelementptr inbounds %struct.CORD_ec_struct, ptr %10, i64 0
  %12 = getelementptr inbounds nuw %struct.CORD_ec_struct, ptr %11, i32 0, i32 2
  %13 = getelementptr inbounds [129 x i8], ptr %12, i64 0, i64 0
  %14 = ptrtoint ptr %9 to i64
  %15 = ptrtoint ptr %13 to i64
  %16 = sub i64 %14, %15
  store i64 %16, ptr %3, align 8, !tbaa !11
  call void @llvm.lifetime.start.p0(i64 8, ptr %4) #9
  %17 = load i64, ptr %3, align 8, !tbaa !11
  %18 = icmp eq i64 %17, 0
  br i1 %18, label %19, label %20

19:                                               ; preds = %1
  store i32 1, ptr %5, align 4
  br label %56

20:                                               ; preds = %1
  %21 = load i64, ptr %3, align 8, !tbaa !11
  %22 = add i64 %21, 1
  %23 = call noalias ptr @GC_malloc_atomic(i64 noundef %22) #10
  store ptr %23, ptr %4, align 8, !tbaa !3
  %24 = load ptr, ptr %4, align 8, !tbaa !3
  %25 = icmp eq ptr null, %24
  br i1 %25, label %26, label %29

26:                                               ; preds = %20
  call void @CORD__call_oom_fn()
  %27 = load ptr, ptr @stderr, align 8, !tbaa !9
  %28 = call i32 (ptr, ptr, ...) @fprintf(ptr noundef %27, ptr noundef @.str, ptr noundef @.str.1) #9
  call void @abort() #11
  unreachable

29:                                               ; preds = %20
  %30 = load ptr, ptr %4, align 8, !tbaa !3
  %31 = load ptr, ptr %2, align 8, !tbaa !33
  %32 = getelementptr inbounds %struct.CORD_ec_struct, ptr %31, i64 0
  %33 = getelementptr inbounds nuw %struct.CORD_ec_struct, ptr %32, i32 0, i32 2
  %34 = getelementptr inbounds [129 x i8], ptr %33, i64 0, i64 0
  %35 = load i64, ptr %3, align 8, !tbaa !11
  call void @llvm.memcpy.p0.p0.i64(ptr align 1 %30, ptr align 8 %34, i64 %35, i1 false)
  %36 = load ptr, ptr %4, align 8, !tbaa !3
  %37 = load i64, ptr %3, align 8, !tbaa !11
  %38 = getelementptr inbounds nuw i8, ptr %36, i64 %37
  store i8 0, ptr %38, align 1, !tbaa !8
  %39 = load ptr, ptr %2, align 8, !tbaa !33
  %40 = getelementptr inbounds %struct.CORD_ec_struct, ptr %39, i64 0
  %41 = getelementptr inbounds nuw %struct.CORD_ec_struct, ptr %40, i32 0, i32 0
  %42 = load ptr, ptr %41, align 8, !tbaa !37
  %43 = load ptr, ptr %4, align 8, !tbaa !3
  %44 = load i64, ptr %3, align 8, !tbaa !11
  %45 = call ptr @CORD_cat_char_star(ptr noundef %42, ptr noundef %43, i64 noundef %44)
  %46 = load ptr, ptr %2, align 8, !tbaa !33
  %47 = getelementptr inbounds %struct.CORD_ec_struct, ptr %46, i64 0
  %48 = getelementptr inbounds nuw %struct.CORD_ec_struct, ptr %47, i32 0, i32 0
  store ptr %45, ptr %48, align 8, !tbaa !37
  %49 = load ptr, ptr %2, align 8, !tbaa !33
  %50 = getelementptr inbounds %struct.CORD_ec_struct, ptr %49, i64 0
  %51 = getelementptr inbounds nuw %struct.CORD_ec_struct, ptr %50, i32 0, i32 2
  %52 = getelementptr inbounds [129 x i8], ptr %51, i64 0, i64 0
  %53 = load ptr, ptr %2, align 8, !tbaa !33
  %54 = getelementptr inbounds %struct.CORD_ec_struct, ptr %53, i64 0
  %55 = getelementptr inbounds nuw %struct.CORD_ec_struct, ptr %54, i32 0, i32 1
  store ptr %52, ptr %55, align 8, !tbaa !35
  store i32 0, ptr %5, align 4
  br label %56

56:                                               ; preds = %29, %19
  call void @llvm.lifetime.end.p0(i64 8, ptr %4) #9
  call void @llvm.lifetime.end.p0(i64 8, ptr %3) #9
  %57 = load i32, ptr %5, align 4
  switch i32 %57, label %59 [
    i32 0, label %58
    i32 1, label %58
  ]

58:                                               ; preds = %56, %56
  ret void

59:                                               ; preds = %56
  unreachable
}

; Function Attrs: nounwind uwtable
define void @CORD_ec_append_cord(ptr noundef %0, ptr noundef %1) #0 {
  %3 = alloca ptr, align 8
  %4 = alloca ptr, align 8
  store ptr %0, ptr %3, align 8, !tbaa !33
  store ptr %1, ptr %4, align 8, !tbaa !3
  %5 = load ptr, ptr %3, align 8, !tbaa !33
  call void @CORD_ec_flush_buf(ptr noundef %5)
  %6 = load ptr, ptr %3, align 8, !tbaa !33
  %7 = getelementptr inbounds %struct.CORD_ec_struct, ptr %6, i64 0
  %8 = getelementptr inbounds nuw %struct.CORD_ec_struct, ptr %7, i32 0, i32 0
  %9 = load ptr, ptr %8, align 8, !tbaa !37
  %10 = load ptr, ptr %4, align 8, !tbaa !3
  %11 = call ptr @CORD_cat(ptr noundef %9, ptr noundef %10)
  %12 = load ptr, ptr %3, align 8, !tbaa !33
  %13 = getelementptr inbounds %struct.CORD_ec_struct, ptr %12, i64 0
  %14 = getelementptr inbounds nuw %struct.CORD_ec_struct, ptr %13, i32 0, i32 0
  store ptr %11, ptr %14, align 8, !tbaa !37
  ret void
}