; Function Attrs: nounwind uwtable
define void @CORD_ec_append_cord(ptr noundef %0, ptr noundef %1) local_unnamed_addr #0 {
  %3 = getelementptr inbounds nuw i8, ptr %0, i64 8
  %4 = load ptr, ptr %3, align 8, !tbaa !30
  %5 = getelementptr inbounds nuw i8, ptr %0, i64 16
  %6 = ptrtoint ptr %4 to i64
  %7 = ptrtoint ptr %5 to i64
  %8 = sub i64 %6, %7
  %9 = icmp eq ptr %4, %5
  br i1 %9, label %.CORD_ec_flush_buf.exit_crit_edge, label %10

.CORD_ec_flush_buf.exit_crit_edge:                ; preds = %2
  %.pre = load ptr, ptr %0, align 8, !tbaa !32
  br label %CORD_ec_flush_buf.exit

10:                                               ; preds = %2
  %11 = add i64 %8, 1
  %12 = tail call noalias ptr @GC_malloc_atomic(i64 noundef %11) #17
  %13 = icmp eq ptr %12, null
  br i1 %13, label %14, label %17

14:                                               ; preds = %10
  tail call void @CORD__call_oom_fn() #16
  %15 = load ptr, ptr @stderr, align 8, !tbaa !3
  %16 = tail call i32 (ptr, ptr, ...) @fprintf(ptr noundef %15, ptr noundef nonnull @.str, ptr noundef nonnull @.str.1) #18
  tail call void @abort() #19
  unreachable

17:                                               ; preds = %10
  tail call void @llvm.memcpy.p0.p0.i64(ptr nonnull align 1 %12, ptr nonnull align 8 %5, i64 %8, i1 false)
  %18 = getelementptr inbounds nuw i8, ptr %12, i64 %8
  store i8 0, ptr %18, align 1, !tbaa !8
  %19 = load ptr, ptr %0, align 8, !tbaa !32
  %20 = tail call ptr @CORD_cat_char_star(ptr noundef %19, ptr noundef nonnull %12, i64 noundef %8) #16
  store ptr %20, ptr %0, align 8, !tbaa !32
  store ptr %5, ptr %3, align 8, !tbaa !30
  br label %CORD_ec_flush_buf.exit

CORD_ec_flush_buf.exit:                           ; preds = %.CORD_ec_flush_buf.exit_crit_edge, %17
  %21 = phi ptr [ %.pre, %.CORD_ec_flush_buf.exit_crit_edge ], [ %20, %17 ]
  %22 = tail call ptr @CORD_cat(ptr noundef %21, ptr noundef %1) #16
  store ptr %22, ptr %0, align 8, !tbaa !32
  ret void
}